target datalayout = "e-m:e-p270:32:32-p271:32:32-p272:64:64-i64:64-i128:128-f80:128-n8:16:32:64-S128"
target triple = "x86_64-pc-linux-gnu"

%"class.sls::bv_lookahead" = type { %class.bv_util, ptr, ptr, ptr, %"struct.sls::bv_lookahead::config", %"struct.sls::bv_lookahead::stats", %"class.sls::bvect", %"class.sls::bvect", %class.ptr_vector, %class.svector.1, %class.vector.3, %class.obj_mark, double, double, %"class.sls::bvect", ptr, ptr, %class.ptr_vector, %class.vector.4, %class.obj_mark, i32, %class.tracked_uint_set, i32, i32 }
%class.bv_util = type { %class.bv_recognizers, ptr, ptr }
%class.bv_recognizers = type { i32 }
%"struct.sls::bv_lookahead::config" = type <{ i8, [7 x i8], double, i32, i32, i8, i8, i8, i8, i32, i32, i32, i32, i8, [3 x i8], i32, i32, i32, i8, [3 x i8], double, double, i8, [7 x i8], double, i8, i8, i8, [5 x i8] }>
%"struct.sls::bv_lookahead::stats" = type { i32, i32, i32, i32, i32, i32 }
%class.svector.1 = type { %class.vector.2 }
%class.vector.2 = type { ptr }
%class.vector.3 = type { ptr }
%"class.sls::bvect" = type <{ %class.svector, i32, i32, i32, [4 x i8] }>
%class.svector = type { %class.vector }
%class.vector = type { ptr }
%class.ptr_vector = type { %class.vector.0 }
%class.vector.0 = type { ptr }
%class.vector.4 = type { ptr }
%class.obj_mark = type { [8 x i8], %class.bit_vector }
%class.bit_vector = type { i32, i32, ptr }
%class.tracked_uint_set = type { %class.svector.5, %class.svector }
%class.svector.5 = type { %class.vector.6 }
%class.vector.6 = type { ptr }

@.str.13 = private unnamed_addr constant [18 x i8] c"sls-bv-lookaheads\00", align 1
@.str.14 = private unnamed_addr constant [13 x i8] c"sls-bv-moves\00", align 1
@.str.15 = private unnamed_addr constant [16 x i8] c"sls-bv-restarts\00", align 1
@.str.16 = private unnamed_addr constant [17 x i8] c"sls-bv-rotations\00", align 1

; Function Attrs: mustprogress uwtable
define hidden void @_ZNK3sls12bv_lookahead18collect_statisticsER10statistics(ptr noundef nonnull align 8 dereferenceable(400) %0, ptr noundef nonnull align 8 dereferenceable(16) %1) #4 align 2 {
  %3 = alloca ptr, align 8
  %4 = alloca ptr, align 8
  store ptr %0, ptr %3, align 8, !tbaa !3
  store ptr %1, ptr %4, align 8, !tbaa !365
  %5 = load ptr, ptr %3, align 8
  %6 = load ptr, ptr %4, align 8, !tbaa !365
  %7 = getelementptr inbounds nuw %"class.sls::bv_lookahead", ptr %5, i32 0, i32 5
  %8 = getelementptr inbounds nuw %"struct.sls::bv_lookahead::stats", ptr %7, i32 0, i32 0
  %9 = load i32, ptr %8, align 8, !tbaa !347
  call void @_ZN10statistics6updateEPKcj(ptr noundef nonnull align 8 dereferenceable(16) %6, ptr noundef @.str.13, i32 noundef %9)
  %10 = load ptr, ptr %4, align 8, !tbaa !365
  %11 = getelementptr inbounds nuw %"class.sls::bv_lookahead", ptr %5, i32 0, i32 5
  %12 = getelementptr inbounds nuw %"struct.sls::bv_lookahead::stats", ptr %11, i32 0, i32 1
  %13 = load i32, ptr %12, align 4, !tbaa !142
  call void @_ZN10statistics6updateEPKcj(ptr noundef nonnull align 8 dereferenceable(16) %10, ptr noundef @.str.14, i32 noundef %13)
  %14 = load ptr, ptr %4, align 8, !tbaa !365
  %15 = getelementptr inbounds nuw %"class.sls::bv_lookahead", ptr %5, i32 0, i32 5
  %16 = getelementptr inbounds nuw %"struct.sls::bv_lookahead::stats", ptr %15, i32 0, i32 2
  %17 = load i32, ptr %16, align 8, !tbaa !211
  call void @_ZN10statistics6updateEPKcj(ptr noundef nonnull align 8 dereferenceable(16) %14, ptr noundef @.str.15, i32 noundef %17)
  %18 = load ptr, ptr %4, align 8, !tbaa !365
  %19 = getelementptr inbounds nuw %"class.sls::bv_lookahead", ptr %5, i32 0, i32 5
  %20 = getelementptr inbounds nuw %"struct.sls::bv_lookahead::stats", ptr %19, i32 0, i32 5
  %21 = load i32, ptr %20, align 4, !tbaa !233
  call void @_ZN10statistics6updateEPKcj(ptr noundef nonnull align 8 dereferenceable(16) %18, ptr noundef @.str.16, i32 noundef %21)
  ret void
}