; Function Attrs: mustprogress uwtable
define hidden void @_ZNK3sls12bv_lookahead18collect_statisticsER10statistics(ptr noundef nonnull readonly align 8 captures(none) dereferenceable(400) %0, ptr noundef nonnull align 8 dereferenceable(16) %1) local_unnamed_addr #3 align 2 {
  %3 = getelementptr inbounds nuw i8, ptr %0, i64 152
  %4 = load i32, ptr %3, align 8, !tbaa !201
  tail call void @_ZN10statistics6updateEPKcj(ptr noundef nonnull align 8 dereferenceable(16) %1, ptr noundef nonnull @.str.13, i32 noundef %4)
  %5 = getelementptr inbounds nuw i8, ptr %0, i64 156
  %6 = load i32, ptr %5, align 4, !tbaa !98
  tail call void @_ZN10statistics6updateEPKcj(ptr noundef nonnull align 8 dereferenceable(16) %1, ptr noundef nonnull @.str.14, i32 noundef %6)
  %7 = getelementptr inbounds nuw i8, ptr %0, i64 160
  %8 = load i32, ptr %7, align 8, !tbaa !131
  tail call void @_ZN10statistics6updateEPKcj(ptr noundef nonnull align 8 dereferenceable(16) %1, ptr noundef nonnull @.str.15, i32 noundef %8)
  %9 = getelementptr inbounds nuw i8, ptr %0, i64 172
  %10 = load i32, ptr %9, align 4, !tbaa !222
  tail call void @_ZN10statistics6updateEPKcj(ptr noundef nonnull align 8 dereferenceable(16) %1, ptr noundef nonnull @.str.16, i32 noundef %10)
  ret void
}